(dp0
S'Albums'
p1
(dp2
(S'plus'
p3
S'Ed Sheeran'
p4
tp5
(dp6
S'songsID'
p7
(lp8
(S'A team'
p9
g3
g4
tp10
asssS'Songs'
p11
(dp12
(g9
g3
g4
tp13
(dp14
S'duration'
p15
S''
p16
sS'count'
p17
I0
sS'location'
p18
S'a_team.mp3'
p19
sS'tags'
p20
(lp21
sssS'Playlists'
p22
(dp23
sS'Artists'
p24
(dp25
(g4
tp26
(dp27
S'albumsID'
p28
(lp29
(S'plus'
p30
S'Ed Sheeran'
p31
tp32
asg7
(lp33
(g9
g3
g4
tp34
asss.